target datalayout = "e-m:e-p270:32:32-p271:32:32-p272:64:64-i64:64-i128:128-f80:128-n8:16:32:64-S128"
target triple = "x86_64-pc-linux-gnu"

%struct.uv_loop_s = type { ptr, i32, %struct.uv__queue, %union.anon, ptr, i32, i64, i32, %struct.uv__queue, %struct.uv__queue, ptr, i32, i32, %struct.uv__queue, %union.pthread_mutex_t, %struct.uv_async_s, %union.pthread_rwlock_t, ptr, %struct.uv__queue, %struct.uv__queue, %struct.uv__queue, %struct.uv__queue, %struct.uv__queue, ptr, %struct.uv__io_s, i32, %struct.anon, i64, i64, [2 x i32], %struct.uv__io_s, %struct.uv_signal_s, i32, %struct.uv__io_s, ptr, i32 }
%union.anon = type { ptr }
%union.pthread_mutex_t = type { %struct.__pthread_mutex_s }
%struct.__pthread_mutex_s = type { i32, i32, i32, i32, i32, i16, i16, %struct.__pthread_internal_list }
%struct.__pthread_internal_list = type { ptr, ptr }
%struct.uv_async_s = type { ptr, ptr, i32, ptr, %struct.uv__queue, %union.anon.0, ptr, i32, ptr, %struct.uv__queue, i32 }
%union.anon.0 = type { [4 x ptr] }
%union.pthread_rwlock_t = type { %struct.__pthread_rwlock_arch_t }
%struct.__pthread_rwlock_arch_t = type { i32, i32, i32, i32, i32, i32, i32, i32, i8, [7 x i8], i64, i32 }
%struct.uv__queue = type { ptr, ptr }
%struct.anon = type { ptr, i32 }
%struct.uv_signal_s = type { ptr, ptr, i32, ptr, %struct.uv__queue, %union.anon.1, ptr, i32, ptr, i32, %struct.anon.2, i32, i32 }
%union.anon.1 = type { [4 x ptr] }
%struct.anon.2 = type { ptr, ptr, ptr, i32 }
%struct.uv__io_s = type { ptr, %struct.uv__queue, %struct.uv__queue, i32, i32, i32 }
%struct.uv__loop_internal_fields_s = type { i32, %struct.uv__loop_metrics_s, i32, %struct.uv__iou, %struct.uv__iou, ptr }
%struct.uv__loop_metrics_s = type { %struct.uv_metrics_s, i64, i64, %union.pthread_mutex_t }
%struct.uv_metrics_s = type { i64, i64, i64, [13 x ptr] }
%struct.uv__iou = type { ptr, ptr, i32, ptr, ptr, ptr, i32, ptr, ptr, ptr, i64, i64, i64, i64, i32, i32 }
%struct.__va_list_tag = type { i32, i32, ptr, ptr }

; Function Attrs: nounwind uwtable
define hidden i32 @uv__loop_configure(ptr noundef %0, i32 noundef %1, ptr noundef %2) #0 {
  %4 = alloca i32, align 4
  %5 = alloca ptr, align 8
  %6 = alloca i32, align 4
  %7 = alloca ptr, align 8
  %8 = alloca ptr, align 8
  %9 = alloca i32, align 4
  store ptr %0, ptr %5, align 8
  store i32 %1, ptr %6, align 4
  store ptr %2, ptr %7, align 8
  call void @llvm.lifetime.start.p0(i64 8, ptr %8) #5
  %10 = load ptr, ptr %5, align 8
  %11 = getelementptr inbounds nuw %struct.uv_loop_s, ptr %10, i32 0, i32 4
  %12 = load ptr, ptr %11, align 8
  store ptr %12, ptr %8, align 8
  %13 = load i32, ptr %6, align 4
  %14 = icmp eq i32 %13, 1
  br i1 %14, label %15, label %20

15:                                               ; preds = %3
  %16 = load ptr, ptr %8, align 8
  %17 = getelementptr inbounds nuw %struct.uv__loop_internal_fields_s, ptr %16, i32 0, i32 0
  %18 = load i32, ptr %17, align 8
  %19 = or i32 %18, 1
  store i32 %19, ptr %17, align 8
  store i32 0, ptr %4, align 4
  store i32 1, ptr %9, align 4
  br label %56

20:                                               ; preds = %3
  %21 = load i32, ptr %6, align 4
  %22 = icmp eq i32 %21, 2
  br i1 %22, label %23, label %28

23:                                               ; preds = %20
  %24 = load ptr, ptr %5, align 8
  %25 = getelementptr inbounds nuw %struct.uv_loop_s, ptr %24, i32 0, i32 6
  %26 = load i64, ptr %25, align 8
  %27 = or i64 %26, 4
  store i64 %27, ptr %25, align 8
  store i32 0, ptr %4, align 4
  store i32 1, ptr %9, align 4
  br label %56

28:                                               ; preds = %20
  %29 = load i32, ptr %6, align 4
  %30 = icmp ne i32 %29, 0
  br i1 %30, label %31, label %32

31:                                               ; preds = %28
  store i32 -38, ptr %4, align 4
  store i32 1, ptr %9, align 4
  br label %56

32:                                               ; preds = %28
  %33 = load ptr, ptr %7, align 8
  %34 = getelementptr inbounds nuw %struct.__va_list_tag, ptr %33, i32 0, i32 0
  %35 = load i32, ptr %34, align 8
  %36 = icmp ule i32 %35, 40
  br i1 %36, label %37, label %42

37:                                               ; preds = %32
  %38 = getelementptr inbounds nuw %struct.__va_list_tag, ptr %33, i32 0, i32 3
  %39 = load ptr, ptr %38, align 8
  %40 = getelementptr i8, ptr %39, i32 %35
  %41 = add i32 %35, 8
  store i32 %41, ptr %34, align 8
  br label %46

42:                                               ; preds = %32
  %43 = getelementptr inbounds nuw %struct.__va_list_tag, ptr %33, i32 0, i32 2
  %44 = load ptr, ptr %43, align 8
  %45 = getelementptr i8, ptr %44, i32 8
  store ptr %45, ptr %43, align 8
  br label %46

46:                                               ; preds = %42, %37
  %47 = phi ptr [ %40, %37 ], [ %44, %42 ]
  %48 = load i32, ptr %47, align 4
  %49 = icmp ne i32 %48, 27
  br i1 %49, label %50, label %51

50:                                               ; preds = %46
  store i32 -22, ptr %4, align 4
  store i32 1, ptr %9, align 4
  br label %56

51:                                               ; preds = %46
  %52 = load ptr, ptr %5, align 8
  %53 = getelementptr inbounds nuw %struct.uv_loop_s, ptr %52, i32 0, i32 6
  %54 = load i64, ptr %53, align 8
  %55 = or i64 %54, 1
  store i64 %55, ptr %53, align 8
  store i32 0, ptr %4, align 4
  store i32 1, ptr %9, align 4
  br label %56

56:                                               ; preds = %51, %50, %31, %23, %15
  call void @llvm.lifetime.end.p0(i64 8, ptr %8) #5
  %57 = load i32, ptr %4, align 4
  ret i32 %57
}