; Function Attrs: mustprogress nofree norecurse nosync nounwind willreturn memory(readwrite, inaccessiblemem: none) uwtable
define hidden range(i32 -38, 1) i32 @uv__loop_configure(ptr noundef captures(none) %0, i32 noundef %1, ptr noundef captures(none) %2) local_unnamed_addr #3 {
  switch i32 %1, label %33 [
    i32 1, label %4
    i32 2, label %9
    i32 0, label %13
  ]

4:                                                ; preds = %3
  %5 = getelementptr inbounds nuw i8, ptr %0, i64 40
  %6 = load ptr, ptr %5, align 8
  %7 = load i32, ptr %6, align 8
  %8 = or i32 %7, 1
  store i32 %8, ptr %6, align 8
  br label %33

9:                                                ; preds = %3
  %10 = getelementptr inbounds nuw i8, ptr %0, i64 56
  %11 = load i64, ptr %10, align 8
  %12 = or i64 %11, 4
  store i64 %12, ptr %10, align 8
  br label %33

13:                                               ; preds = %3
  %14 = load i32, ptr %2, align 8
  %15 = icmp ult i32 %14, 41
  br i1 %15, label %16, label %22

16:                                               ; preds = %13
  %17 = getelementptr inbounds nuw i8, ptr %2, i64 16
  %18 = load ptr, ptr %17, align 8
  %19 = zext nneg i32 %14 to i64
  %20 = getelementptr i8, ptr %18, i64 %19
  %21 = add nuw nsw i32 %14, 8
  store i32 %21, ptr %2, align 8
  br label %26

22:                                               ; preds = %13
  %23 = getelementptr inbounds nuw i8, ptr %2, i64 8
  %24 = load ptr, ptr %23, align 8
  %25 = getelementptr i8, ptr %24, i64 8
  store ptr %25, ptr %23, align 8
  br label %26

26:                                               ; preds = %22, %16
  %27 = phi ptr [ %20, %16 ], [ %24, %22 ]
  %28 = load i32, ptr %27, align 4
  %.not10 = icmp eq i32 %28, 27
  br i1 %.not10, label %29, label %33

29:                                               ; preds = %26
  %30 = getelementptr inbounds nuw i8, ptr %0, i64 56
  %31 = load i64, ptr %30, align 8
  %32 = or i64 %31, 1
  store i64 %32, ptr %30, align 8
  br label %33

33:                                               ; preds = %26, %3, %29, %9, %4
  %.0 = phi i32 [ 0, %4 ], [ 0, %9 ], [ 0, %29 ], [ -38, %3 ], [ -22, %26 ]
  ret i32 %.0
}